target datalayout = "e-m:e-p270:32:32-p271:32:32-p272:64:64-i64:64-i128:128-f80:128-n8:16:32:64-S128"
target triple = "x86_64-pc-linux-gnu"

%"class.std::__cxx11::basic_string" = type { %"struct.std::__cxx11::basic_string<char>::_Alloc_hider", i64, %union.anon }
%"struct.std::__cxx11::basic_string<char>::_Alloc_hider" = type { ptr }
%union.anon = type { i64, [8 x i8] }
%"class.glslang::TShader" = type <{ ptr, ptr, i32, [4 x i8], ptr, ptr, ptr, ptr, ptr, ptr, i32, [4 x i8], ptr, %"class.std::__cxx11::basic_string", i32, %"struct.glslang::TEnvironment", i8, [3 x i8] }>
%"struct.glslang::TEnvironment" = type { %"struct.glslang::TInputLanguage", %"struct.glslang::TClient", %"struct.glslang::TTarget" }
%"struct.glslang::TInputLanguage" = type { i32, i32, i32, i32, i8 }
%"struct.glslang::TClient" = type { i32, i32 }
%"struct.glslang::TTarget" = type { i32, i32, i8 }

; Function Attrs: mustprogress nounwind uwtable
define void @_ZN7glslang7TShader29setStringsWithLengthsAndNamesEPKPKcPKiS4_i(ptr noundef nonnull align 8 dereferenceable(165) %0, ptr noundef %1, ptr noundef %2, ptr noundef %3, i32 noundef %4) #4 align 2 {
  %6 = alloca ptr, align 8
  %7 = alloca ptr, align 8
  %8 = alloca ptr, align 8
  %9 = alloca ptr, align 8
  %10 = alloca i32, align 4
  store ptr %0, ptr %6, align 8
  store ptr %1, ptr %7, align 8
  store ptr %2, ptr %8, align 8
  store ptr %3, ptr %9, align 8
  store i32 %4, ptr %10, align 4
  %11 = load ptr, ptr %6, align 8
  %12 = load ptr, ptr %7, align 8
  %13 = getelementptr inbounds %"class.glslang::TShader", ptr %11, i32 0, i32 7
  store ptr %12, ptr %13, align 8
  %14 = load i32, ptr %10, align 4
  %15 = getelementptr inbounds %"class.glslang::TShader", ptr %11, i32 0, i32 10
  store i32 %14, ptr %15, align 8
  %16 = load ptr, ptr %8, align 8
  %17 = getelementptr inbounds %"class.glslang::TShader", ptr %11, i32 0, i32 8
  store ptr %16, ptr %17, align 8
  %18 = load ptr, ptr %9, align 8
  %19 = getelementptr inbounds %"class.glslang::TShader", ptr %11, i32 0, i32 9
  store ptr %18, ptr %19, align 8
  ret void
}