; Function Attrs: mustprogress nofree norecurse nosync nounwind willreturn memory(argmem: write) uwtable
define void @_ZN7glslang7TShader29setStringsWithLengthsAndNamesEPKPKcPKiS4_i(ptr noundef nonnull writeonly align 8 captures(none) dereferenceable(165) initializes((48, 76)) %0, ptr noundef %1, ptr noundef %2, ptr noundef %3, i32 noundef %4) local_unnamed_addr #7 align 2 {
  %6 = getelementptr inbounds nuw i8, ptr %0, i64 48
  store ptr %1, ptr %6, align 8
  %7 = getelementptr inbounds nuw i8, ptr %0, i64 72
  store i32 %4, ptr %7, align 8
  %8 = getelementptr inbounds nuw i8, ptr %0, i64 56
  store ptr %2, ptr %8, align 8
  %9 = getelementptr inbounds nuw i8, ptr %0, i64 64
  store ptr %3, ptr %9, align 8
  ret void
}